target datalayout = "e-m:e-p270:32:32-p271:32:32-p272:64:64-i64:64-i128:128-f80:128-n8:16:32:64-S128"
target triple = "x86_64-pc-linux-gnu"

%struct.Node = type { i32 }
%struct.Expr = type { i32 }
%struct.PlaceHolderVar = type { %struct.Expr, ptr, ptr, ptr, i32, i32 }
%struct.find_dependent_phvs_context = type { ptr, i32 }

; Function Attrs: nounwind uwtable
define internal zeroext i1 @find_dependent_phvs_walker(ptr noundef %0, ptr noundef %1) #0 {
  %3 = alloca i1, align 1
  %4 = alloca ptr, align 8
  %5 = alloca ptr, align 8
  %6 = alloca ptr, align 8
  %7 = alloca i32, align 4
  %8 = alloca i8, align 1
  store ptr %0, ptr %4, align 8
  store ptr %1, ptr %5, align 8
  %9 = load ptr, ptr %4, align 8
  %10 = icmp eq ptr %9, null
  br i1 %10, label %11, label %12

11:                                               ; preds = %2
  store i1 false, ptr %3, align 1
  br label %63

12:                                               ; preds = %2
  %13 = load ptr, ptr %4, align 8
  %14 = getelementptr inbounds nuw %struct.Node, ptr %13, i32 0, i32 0
  %15 = load i32, ptr %14, align 4
  %16 = icmp eq i32 %15, 318
  br i1 %16, label %17, label %39

17:                                               ; preds = %12
  call void @llvm.lifetime.start.p0(i64 8, ptr %6) #8
  %18 = load ptr, ptr %4, align 8
  store ptr %18, ptr %6, align 8
  %19 = load ptr, ptr %6, align 8
  %20 = getelementptr inbounds nuw %struct.PlaceHolderVar, ptr %19, i32 0, i32 5
  %21 = load i32, ptr %20, align 4
  %22 = load ptr, ptr %5, align 8
  %23 = getelementptr inbounds nuw %struct.find_dependent_phvs_context, ptr %22, i32 0, i32 1
  %24 = load i32, ptr %23, align 8
  %25 = icmp eq i32 %21, %24
  br i1 %25, label %26, label %35

26:                                               ; preds = %17
  %27 = load ptr, ptr %5, align 8
  %28 = getelementptr inbounds nuw %struct.find_dependent_phvs_context, ptr %27, i32 0, i32 0
  %29 = load ptr, ptr %28, align 8
  %30 = load ptr, ptr %6, align 8
  %31 = getelementptr inbounds nuw %struct.PlaceHolderVar, ptr %30, i32 0, i32 2
  %32 = load ptr, ptr %31, align 8
  %33 = call zeroext i1 @bms_equal(ptr noundef %29, ptr noundef %32)
  br i1 %33, label %34, label %35

34:                                               ; preds = %26
  store i1 true, ptr %3, align 1
  store i32 1, ptr %7, align 4
  br label %36

35:                                               ; preds = %26, %17
  store i32 0, ptr %7, align 4
  br label %36

36:                                               ; preds = %35, %34
  call void @llvm.lifetime.end.p0(i64 8, ptr %6) #8
  %37 = load i32, ptr %7, align 4
  switch i32 %37, label %65 [
    i32 0, label %38
    i32 1, label %63
  ]

38:                                               ; preds = %36
  br label %39

39:                                               ; preds = %38, %12
  %40 = load ptr, ptr %4, align 8
  %41 = getelementptr inbounds nuw %struct.Node, ptr %40, i32 0, i32 0
  %42 = load i32, ptr %41, align 4
  %43 = icmp eq i32 %42, 67
  br i1 %43, label %44, label %59

44:                                               ; preds = %39
  call void @llvm.lifetime.start.p0(i64 1, ptr %8) #8
  %45 = load ptr, ptr %5, align 8
  %46 = getelementptr inbounds nuw %struct.find_dependent_phvs_context, ptr %45, i32 0, i32 1
  %47 = load i32, ptr %46, align 8
  %48 = add i32 %47, 1
  store i32 %48, ptr %46, align 8
  %49 = load ptr, ptr %4, align 8
  %50 = load ptr, ptr %5, align 8
  %51 = call zeroext i1 @query_tree_walker_impl(ptr noundef %49, ptr noundef @find_dependent_phvs_walker, ptr noundef %50, i32 noundef 0)
  %52 = zext i1 %51 to i8
  store i8 %52, ptr %8, align 1
  %53 = load ptr, ptr %5, align 8
  %54 = getelementptr inbounds nuw %struct.find_dependent_phvs_context, ptr %53, i32 0, i32 1
  %55 = load i32, ptr %54, align 8
  %56 = add i32 %55, -1
  store i32 %56, ptr %54, align 8
  %57 = load i8, ptr %8, align 1, !range !7, !noundef !8
  %58 = trunc i8 %57 to i1
  store i1 %58, ptr %3, align 1
  store i32 1, ptr %7, align 4
  call void @llvm.lifetime.end.p0(i64 1, ptr %8) #8
  br label %63

59:                                               ; preds = %39
  %60 = load ptr, ptr %4, align 8
  %61 = load ptr, ptr %5, align 8
  %62 = call zeroext i1 @expression_tree_walker_impl(ptr noundef %60, ptr noundef @find_dependent_phvs_walker, ptr noundef %61)
  store i1 %62, ptr %3, align 1
  br label %63

63:                                               ; preds = %59, %44, %36, %11
  %64 = load i1, ptr %3, align 1
  ret i1 %64

65:                                               ; preds = %36
  unreachable
}