; Function Attrs: nounwind uwtable
define internal zeroext i1 @find_dependent_phvs_walker(ptr noundef %0, ptr noundef %1) #0 {
  %3 = icmp eq ptr %0, null
  br i1 %3, label %28, label %4

4:                                                ; preds = %2
  %5 = load i32, ptr %0, align 4
  %6 = icmp eq i32 %5, 318
  br i1 %6, label %7, label %.thread

7:                                                ; preds = %4
  %8 = getelementptr inbounds nuw i8, ptr %0, i64 36
  %9 = load i32, ptr %8, align 4
  %10 = getelementptr inbounds nuw i8, ptr %1, i64 8
  %11 = load i32, ptr %10, align 8
  %12 = icmp eq i32 %9, %11
  br i1 %12, label %13, label %.thread.thread

13:                                               ; preds = %7
  %14 = load ptr, ptr %1, align 8
  %15 = getelementptr inbounds nuw i8, ptr %0, i64 16
  %16 = load ptr, ptr %15, align 8
  %17 = tail call zeroext i1 @bms_equal(ptr noundef %14, ptr noundef %16) #7
  br i1 %17, label %28, label %..thread_crit_edge

..thread_crit_edge:                               ; preds = %13
  %.pr.pre = load i32, ptr %0, align 4
  br label %.thread

.thread:                                          ; preds = %..thread_crit_edge, %4
  %18 = phi i32 [ %5, %4 ], [ %.pr.pre, %..thread_crit_edge ]
  %19 = icmp eq i32 %18, 67
  br i1 %19, label %20, label %.thread.thread

20:                                               ; preds = %.thread
  %21 = getelementptr inbounds nuw i8, ptr %1, i64 8
  %22 = load i32, ptr %21, align 8
  %23 = add i32 %22, 1
  store i32 %23, ptr %21, align 8
  %24 = tail call zeroext i1 @query_tree_walker_impl(ptr noundef nonnull %0, ptr noundef nonnull @find_dependent_phvs_walker, ptr noundef %1, i32 noundef 0) #7
  %25 = load i32, ptr %21, align 8
  %26 = add i32 %25, -1
  store i32 %26, ptr %21, align 8
  br label %28

.thread.thread:                                   ; preds = %7, %.thread
  %27 = tail call zeroext i1 @expression_tree_walker_impl(ptr noundef nonnull %0, ptr noundef nonnull @find_dependent_phvs_walker, ptr noundef %1) #7
  br label %28

28:                                               ; preds = %13, %2, %.thread.thread, %20
  %.0 = phi i1 [ %24, %20 ], [ %27, %.thread.thread ], [ false, %2 ], [ true, %13 ]
  ret i1 %.0
}